(dp0
Vengine
p1
Vpdflatex
p2
sVpackages
p3
c__builtin__
set
p4
((lp5
Vhyperref
p6
aVenumitem
p7
aVmulticol
p8
aVwasysym
p9
aVfancyhdr
p10
aVcolor
p11
aVmarvosym
p12
aVtikz
p13
aVamsmath
p14
aVpsfrag
p15
aVcaption
p16
aVgraphicx
p17
aVsubeqnarray
p18
aVamssymb
p19
atp20
Rp21
sVfiles_with_guttermarks
p22
g4
((lp23
V/Users/qingwang/Documents/coursework/ME_257_357/Spring_2018/PSets/Pset2/assignment/./main.tex
p24
aS'main.tex'
p25
atp26
Rp27
sVsynctex
p28
I01
s.